(dp0
S'symbols'
p1
(lp2
csympy.core.symbol
Symbol
p3
(S'B2_dot3'
p4
tp5
Rp6
(dp7
S'_assumptions'
p8
ccopy_reg
_reconstructor
p9
(csympy.core.assumptions
StdFactKB
p10
c__builtin__
dict
p11
(dp12
S'polar'
p13
NsS'commutative'
p14
I01
sS'antihermitian'
p15
NsS'nonpositive'
p16
NsS'positive'
p17
NsS'negative'
p18
NsS'nonnegative'
p19
NsS'algebraic'
p20
NsS'zero'
p21
NsS'complex'
p22
NsS'rational'
p23
NsS'infinite'
p24
NsS'hermitian'
p25
NsS'finite'
p26
NsS'irrational'
p27
Nstp28
Rp29
sbag3
(S'C2_dot1'
p30
tp31
Rp32
(dp33
g8
g9
(g10
g11
(dp34
S'real'
p35
Nsg13
Nsg27
Nsg15
Nsg16
Nsg20
Nsg21
Nsg24
NsS'integer'
p36
Nsg25
NsS'odd'
p37
NsS'imaginary'
p38
NsS'even'
p39
Nsg14
I01
sg17
Nsg18
Nsg19
Nsg22
Nsg23
Nsg26
Nstp40
Rp41
sbag3
(S'A1_1'
p42
tp43
Rp44
(dp45
g8
g9
(g10
g11
(dp46
g13
Nsg14
I01
sg15
Nsg16
Nsg17
Nsg18
Nsg19
Nsg20
Nsg21
Nsg22
Nsg23
Nsg24
Nsg25
Nsg26
Nsg27
Nstp47
Rp48
sbag3
(S'B1_dot3'
p49
tp50
Rp51
(dp52
g8
g9
(g10
g11
(dp53
g13
Nsg14
I01
sg15
Nsg16
Nsg17
Nsg18
Nsg19
Nsg20
Nsg21
Nsg22
Nsg23
Nsg24
Nsg25
Nsg26
Nsg27
Nstp54
Rp55
sbag3
(S'C1_3'
p56
tp57
Rp58
(dp59
g8
g9
(g10
g11
(dp60
g35
Nsg13
Nsg27
Nsg15
Nsg16
Nsg20
Nsg21
Nsg24
Nsg36
Nsg25
Nsg37
Nsg38
Nsg39
Nsg14
I01
sg17
Nsg18
Nsg19
Nsg22
Nsg23
Nsg26
Nstp61
Rp62
sbag3
(S'C1_dot2'
p63
tp64
Rp65
(dp66
g8
g9
(g10
g11
(dp67
g13
Nsg14
I01
sg15
Nsg16
Nsg17
Nsg18
Nsg19
Nsg20
Nsg21
Nsg22
Nsg23
Nsg24
Nsg25
Nsg26
Nsg27
Nstp68
Rp69
sbag3
(S'B2_1'
p70
tp71
Rp72
(dp73
g8
g9
(g10
g11
(dp74
g35
Nsg13
Nsg27
Nsg15
Nsg16
Nsg20
Nsg25
Nsg24
Nsg36
Nsg38
Nsg37
Nsg39
Nsg14
I01
sg21
Nsg17
Nsg18
Nsg19
Nsg22
Nsg23
Nsg26
Nstp75
Rp76
sbag3
(S'B1_dot2'
p77
tp78
Rp79
(dp80
g8
g9
(g10
g11
(dp81
g13
Nsg14
I01
sg15
Nsg16
Nsg17
Nsg18
Nsg19
Nsg20
Nsg21
Nsg22
Nsg23
Nsg24
Nsg25
Nsg26
Nsg27
Nstp82
Rp83
sbag3
(S'C1_dot3'
p84
tp85
Rp86
(dp87
g8
g9
(g10
g11
(dp88
g35
Nsg13
Nsg27
Nsg15
Nsg16
Nsg20
Nsg21
Nsg24
Nsg36
Nsg25
Nsg37
Nsg38
Nsg39
Nsg14
I01
sg17
Nsg18
Nsg19
Nsg22
Nsg23
Nsg26
Nstp89
Rp90
sbag3
(S'B1_dot4'
p91
tp92
Rp93
(dp94
g8
g9
(g10
g11
(dp95
g13
Nsg27
Nsg15
Nsg16
Nsg17
Nsg18
Nsg19
Nsg20
Nsg21
Nsg22
Nsg23
Nsg24
Nsg25
Nsg26
Nsg14
I01
stp96
Rp97
sbag3
(S'C1_4'
p98
tp99
Rp100
(dp101
g8
g9
(g10
g11
(dp102
g35
Nsg13
Nsg27
Nsg15
Nsg16
Nsg20
Nsg21
Nsg24
Nsg36
Nsg25
Nsg37
Nsg38
Nsg39
Nsg14
I01
sg17
Nsg18
Nsg19
Nsg22
Nsg23
Nsg26
Nstp103
Rp104
sbag3
(S'C2_4'
p105
tp106
Rp107
(dp108
g8
g9
(g10
g11
(dp109
g35
Nsg13
Nsg27
Nsg15
Nsg16
Nsg20
Nsg21
Nsg24
Nsg36
Nsg25
Nsg37
Nsg38
Nsg39
Nsg14
I01
sg17
Nsg18
Nsg19
Nsg22
Nsg23
Nsg26
Nstp110
Rp111
sbag3
(S'B2_4'
p112
tp113
Rp114
(dp115
g8
g9
(g10
g11
(dp116
g35
Nsg13
Nsg27
Nsg15
Nsg16
Nsg20
Nsg21
Nsg24
Nsg36
Nsg25
Nsg37
Nsg38
Nsg39
Nsg14
I01
sg17
Nsg18
Nsg19
Nsg22
Nsg23
Nsg26
Nstp117
Rp118
sbag3
(S'A1_4'
p119
tp120
Rp121
(dp122
g8
g9
(g10
g11
(dp123
g13
Nsg14
I01
sg15
Nsg16
Nsg17
Nsg18
Nsg19
Nsg20
Nsg21
Nsg22
Nsg23
Nsg24
Nsg25
Nsg26
Nsg27
Nstp124
Rp125
sbag3
(S'A2_3'
p126
tp127
Rp128
(dp129
g8
g9
(g10
g11
(dp130
g13
Nsg14
I01
sg15
Nsg16
Nsg17
Nsg18
Nsg19
Nsg20
Nsg21
Nsg22
Nsg23
Nsg24
Nsg25
Nsg26
Nsg27
Nstp131
Rp132
sbag3
(S'C2_dot4'
p133
tp134
Rp135
(dp136
g8
g9
(g10
g11
(dp137
g35
Nsg13
Nsg27
Nsg15
Nsg16
Nsg20
Nsg21
Nsg24
Nsg36
Nsg25
Nsg37
Nsg38
Nsg39
Nsg14
I01
sg17
Nsg18
Nsg19
Nsg22
Nsg23
Nsg26
Nstp138
Rp139
sbag3
(S'C1_ddot2'
p140
tp141
Rp142
(dp143
g8
g9
(g10
g11
(dp144
g13
Nsg14
I01
sg17
Nsg18
Nsg19
Nsg21
Nsg24
Nsg26
Nstp145
Rp146
sbag3
(S'C2_ddot3'
p147
tp148
Rp149
(dp150
g8
g9
(g10
g11
(dp151
g13
Nsg14
I01
sg17
Nsg18
Nsg19
Nsg21
Nsg24
Nsg26
Nstp152
Rp153
sbag3
(S'B2_3'
p154
tp155
Rp156
(dp157
g8
g9
(g10
g11
(dp158
g35
Nsg13
Nsg27
Nsg15
Nsg16
Nsg20
Nsg21
Nsg24
Nsg36
Nsg25
Nsg37
Nsg38
Nsg39
Nsg14
I01
sg17
Nsg18
Nsg19
Nsg22
Nsg23
Nsg26
Nstp159
Rp160
sbag3
(S'B2_2'
p161
tp162
Rp163
(dp164
g8
g9
(g10
g11
(dp165
g35
Nsg13
Nsg27
Nsg15
Nsg16
Nsg20
Nsg25
Nsg24
Nsg36
Nsg38
Nsg37
Nsg39
Nsg14
I01
sg21
Nsg17
Nsg18
Nsg19
Nsg22
Nsg23
Nsg26
Nstp166
Rp167
sbag3
(S'C1_ddot3'
p168
tp169
Rp170
(dp171
g8
g9
(g10
g11
(dp172
g13
Nsg14
I01
sg17
Nsg18
Nsg19
Nsg21
Nsg24
Nsg26
Nstp173
Rp174
sbag3
(S'C1_dot1'
p175
tp176
Rp177
(dp178
g8
g9
(g10
g11
(dp179
g13
Nsg14
I01
sg15
Nsg16
Nsg17
Nsg18
Nsg19
Nsg20
Nsg21
Nsg22
Nsg23
Nsg24
Nsg25
Nsg26
Nsg27
Nstp180
Rp181
sbag3
(S'B1_dot1'
p182
tp183
Rp184
(dp185
g8
g9
(g10
g11
(dp186
g13
Nsg14
I01
sg15
Nsg16
Nsg17
Nsg18
Nsg19
Nsg20
Nsg21
Nsg22
Nsg23
Nsg24
Nsg25
Nsg26
Nsg27
Nstp187
Rp188
sbag3
(S'B2_dot1'
p189
tp190
Rp191
(dp192
g8
g9
(g10
g11
(dp193
g13
Nsg14
I01
sg15
Nsg16
Nsg17
Nsg18
Nsg19
Nsg20
Nsg21
Nsg22
Nsg23
Nsg24
Nsg25
Nsg26
Nsg27
Nstp194
Rp195
sbag3
(S'B1_3'
p196
tp197
Rp198
(dp199
g8
g9
(g10
g11
(dp200
g35
Nsg13
Nsg27
Nsg15
Nsg16
Nsg20
Nsg25
Nsg24
Nsg36
Nsg38
Nsg37
Nsg39
Nsg14
I01
sg21
Nsg17
Nsg18
Nsg19
Nsg22
Nsg23
Nsg26
Nstp201
Rp202
sbag3
(S'C1_1'
p203
tp204
Rp205
(dp206
g8
g9
(g10
g11
(dp207
g35
Nsg13
Nsg27
Nsg15
Nsg16
Nsg20
Nsg25
Nsg24
Nsg36
Nsg38
Nsg37
Nsg39
Nsg14
I01
sg21
Nsg17
Nsg18
Nsg19
Nsg22
Nsg23
Nsg26
Nstp208
Rp209
sbag3
(S'C2_3'
p210
tp211
Rp212
(dp213
g8
g9
(g10
g11
(dp214
g35
Nsg13
Nsg27
Nsg15
Nsg16
Nsg20
Nsg21
Nsg24
Nsg36
Nsg25
Nsg37
Nsg38
Nsg39
Nsg14
I01
sg17
Nsg18
Nsg19
Nsg22
Nsg23
Nsg26
Nstp215
Rp216
sbag3
(S'B1_2'
p217
tp218
Rp219
(dp220
g8
g9
(g10
g11
(dp221
g35
Nsg13
Nsg27
Nsg15
Nsg16
Nsg20
Nsg21
Nsg24
Nsg36
Nsg25
Nsg37
Nsg38
Nsg39
Nsg14
I01
sg17
Nsg18
Nsg19
Nsg22
Nsg23
Nsg26
Nstp222
Rp223
sbag3
(S'C2_dot3'
p224
tp225
Rp226
(dp227
g8
g9
(g10
g11
(dp228
g35
Nsg13
Nsg27
Nsg15
Nsg16
Nsg20
Nsg21
Nsg24
Nsg36
Nsg25
Nsg37
Nsg38
Nsg39
Nsg14
I01
sg17
Nsg18
Nsg19
Nsg22
Nsg23
Nsg26
Nstp229
Rp230
sbag3
(S'C1_ddot1'
p231
tp232
Rp233
(dp234
g8
g9
(g10
g11
(dp235
g13
Nsg14
I01
sg17
Nsg18
Nsg19
Nsg21
Nsg24
Nsg26
Nstp236
Rp237
sbag3
(S'C2_2'
p238
tp239
Rp240
(dp241
g8
g9
(g10
g11
(dp242
g35
Nsg13
Nsg27
Nsg15
Nsg16
Nsg20
Nsg21
Nsg24
Nsg36
Nsg25
Nsg37
Nsg38
Nsg39
Nsg14
I01
sg17
Nsg18
Nsg19
Nsg22
Nsg23
Nsg26
Nstp243
Rp244
sbag3
(S'B1_4'
p245
tp246
Rp247
(dp248
g8
g9
(g10
g11
(dp249
g35
Nsg13
Nsg27
Nsg15
Nsg16
Nsg20
Nsg25
Nsg24
Nsg36
Nsg38
Nsg37
Nsg39
Nsg14
I01
sg21
Nsg17
Nsg18
Nsg19
Nsg22
Nsg23
Nsg26
Nstp250
Rp251
sbag3
(S'A1_2'
p252
tp253
Rp254
(dp255
g8
g9
(g10
g11
(dp256
g13
Nsg14
I01
sg15
Nsg16
Nsg17
Nsg18
Nsg19
Nsg20
Nsg21
Nsg22
Nsg23
Nsg24
Nsg25
Nsg26
Nsg27
Nstp257
Rp258
sbag3
(S'C2_dot2'
p259
tp260
Rp261
(dp262
g8
g9
(g10
g11
(dp263
g13
Nsg14
I01
sg15
Nsg16
Nsg17
Nsg18
Nsg19
Nsg20
Nsg21
Nsg22
Nsg23
Nsg24
Nsg25
Nsg26
Nsg27
Nstp264
Rp265
sbag3
(S'C1_dot4'
p266
tp267
Rp268
(dp269
g8
g9
(g10
g11
(dp270
g35
Nsg13
Nsg27
Nsg15
Nsg16
Nsg20
Nsg25
Nsg24
Nsg36
Nsg38
Nsg37
Nsg39
Nsg14
I01
sg21
Nsg17
Nsg18
Nsg19
Nsg22
Nsg23
Nsg26
Nstp271
Rp272
sbag3
(S'C2_ddot2'
p273
tp274
Rp275
(dp276
g8
g9
(g10
g11
(dp277
g13
Nsg14
I01
sg17
Nsg18
Nsg19
Nsg21
Nsg24
Nsg26
Nstp278
Rp279
sbag3
(S'A1_3'
p280
tp281
Rp282
(dp283
g8
g9
(g10
g11
(dp284
g13
Nsg14
I01
sg15
Nsg16
Nsg17
Nsg18
Nsg19
Nsg20
Nsg21
Nsg22
Nsg23
Nsg24
Nsg25
Nsg26
Nsg27
Nstp285
Rp286
sbag3
(S'A2_1'
p287
tp288
Rp289
(dp290
g8
g9
(g10
g11
(dp291
g13
Nsg14
I01
sg15
Nsg16
Nsg17
Nsg18
Nsg19
Nsg20
Nsg25
Nsg21
Nsg23
Nsg24
Nsg22
Nsg26
Nsg27
Nstp292
Rp293
sbag3
(S'B2_dot4'
p294
tp295
Rp296
(dp297
g8
g9
(g10
g11
(dp298
g13
Nsg14
I01
sg15
Nsg16
Nsg17
Nsg18
Nsg19
Nsg20
Nsg21
Nsg22
Nsg23
Nsg24
Nsg25
Nsg26
Nsg27
Nstp299
Rp300
sbag3
(S'C1_2'
p301
tp302
Rp303
(dp304
g8
g9
(g10
g11
(dp305
g35
Nsg13
Nsg27
Nsg15
Nsg16
Nsg20
Nsg21
Nsg24
Nsg36
Nsg25
Nsg37
Nsg38
Nsg39
Nsg14
I01
sg17
Nsg18
Nsg19
Nsg22
Nsg23
Nsg26
Nstp306
Rp307
sbag3
(S'A2_2'
p308
tp309
Rp310
(dp311
g8
g9
(g10
g11
(dp312
g13
Nsg14
I01
sg15
Nsg16
Nsg17
Nsg18
Nsg19
Nsg20
Nsg21
Nsg22
Nsg23
Nsg24
Nsg25
Nsg26
Nsg27
Nstp313
Rp314
sbag3
(S'B1_1'
p315
tp316
Rp317
(dp318
g8
g9
(g10
g11
(dp319
g35
Nsg13
Nsg27
Nsg15
Nsg16
Nsg20
Nsg25
Nsg24
Nsg36
Nsg38
Nsg37
Nsg39
Nsg14
I01
sg21
Nsg17
Nsg18
Nsg19
Nsg22
Nsg23
Nsg26
Nstp320
Rp321
sbag3
(S'C1_ddot4'
p322
tp323
Rp324
(dp325
g8
g9
(g10
g11
(dp326
g13
Nsg14
I01
sg17
Nsg18
Nsg19
Nsg21
Nsg24
Nsg26
Nstp327
Rp328
sbag3
(S'C2_1'
p329
tp330
Rp331
(dp332
g8
g9
(g10
g11
(dp333
g35
Nsg13
Nsg27
Nsg15
Nsg16
Nsg20
Nsg21
Nsg24
Nsg36
Nsg25
Nsg37
Nsg38
Nsg39
Nsg14
I01
sg17
Nsg18
Nsg19
Nsg22
Nsg23
Nsg26
Nstp334
Rp335
sbag3
(S'C2_ddot4'
p336
tp337
Rp338
(dp339
g8
g9
(g10
g11
(dp340
g13
Nsg14
I01
sg17
Nsg18
Nsg19
Nsg21
Nsg24
Nsg26
Nstp341
Rp342
sbag3
(S'A2_4'
p343
tp344
Rp345
(dp346
g8
g9
(g10
g11
(dp347
g13
Nsg14
I01
sg15
Nsg16
Nsg17
Nsg18
Nsg19
Nsg20
Nsg21
Nsg22
Nsg23
Nsg24
Nsg25
Nsg26
Nsg27
Nstp348
Rp349
sbag3
(S'C2_ddot1'
p350
tp351
Rp352
(dp353
g8
g9
(g10
g11
(dp354
g13
Nsg14
I01
sg17
Nsg18
Nsg19
Nsg21
Nsg24
Nsg26
Nstp355
Rp356
sbag3
(S'B2_dot2'
p357
tp358
Rp359
(dp360
g8
g9
(g10
g11
(dp361
g13
Nsg14
I01
sg15
Nsg16
Nsg17
Nsg18
Nsg19
Nsg20
Nsg21
Nsg22
Nsg23
Nsg24
Nsg25
Nsg26
Nsg27
Nstp362
Rp363
sbasS'P'
p364
g9
(csympy.matrices.dense
MutableDenseMatrix
p365
c__builtin__
object
p366
Ntp367
Rp368
(dp369
S'rows'
p370
I2
sS'_mat'
p371
(lp372
csympy.core.mul
Mul
p373
(csympy.core.power
Pow
p374
(csympy.core.add
Add
p375
(g373
(g205
g240
tp376
Rp377
(dp378
bg373
(csympy.core.numbers
NegativeOne
p379
(tRp380
(dp381
bg303
g331
tp382
Rp383
(dp384
btp385
Rp386
(dp387
bcsympy.core.numbers
Integer
p388
(I5
tp389
Rp390
(dp391
btp392
Rp393
(dp394
bg374
(g375
(g373
(g58
g107
tp395
Rp396
(dp397
bg373
(g380
g100
g212
tp398
Rp399
(dp400
btp401
Rp402
(dp403
bg388
(I7
tp404
Rp405
(dp406
btp407
Rp408
(dp409
bg374
(g375
(g373
(g317
g58
g374
(g107
g388
(I2
tp410
Rp411
(dp412
btp413
Rp414
(dp415
btp416
Rp417
(dp418
bg373
(g72
g212
g374
(g100
g411
tp419
Rp420
(dp421
btp422
Rp423
(dp424
bg373
(g380
g198
g205
g414
tp425
Rp426
(dp427
bg373
(g380
g156
g331
g420
tp428
Rp429
(dp430
bg373
(g388
(I-2
tp431
Rp432
(dp433
bg58
g177
g414
tp434
Rp435
(dp436
bg373
(g432
g212
g32
g420
tp437
Rp438
(dp439
bg373
(g411
g205
g86
g414
tp440
Rp441
(dp442
bg373
(g411
g331
g226
g420
tp443
Rp444
(dp445
bg373
(g198
g100
g331
g107
tp446
Rp447
(dp448
bg373
(g247
g205
g212
g107
tp449
Rp450
(dp451
bg373
(g156
g205
g100
g107
tp452
Rp453
(dp454
bg373
(g114
g58
g100
g331
tp455
Rp456
(dp457
bg373
(g380
g317
g100
g212
g107
tp458
Rp459
(dp460
bg373
(g380
g247
g58
g331
g107
tp461
Rp462
(dp463
bg373
(g380
g72
g58
g100
g107
tp464
Rp465
(dp466
bg373
(g380
g114
g205
g100
g212
tp467
Rp468
(dp469
bg373
(g432
g205
g100
g107
g226
tp470
Rp471
(dp472
bg373
(g432
g205
g268
g212
g107
tp473
Rp474
(dp475
bg373
(g432
g58
g100
g331
g135
tp476
Rp477
(dp478
bg373
(g432
g100
g86
g331
g107
tp479
Rp480
(dp481
bg373
(g411
g205
g100
g212
g135
tp482
Rp483
(dp484
bg373
(g411
g58
g100
g107
g32
tp485
Rp486
(dp487
bg373
(g411
g58
g268
g331
g107
tp488
Rp489
(dp490
bg373
(g411
g100
g177
g212
g107
tp491
Rp492
(dp493
btp494
Rp495
(dp496
bg411
tp497
Rp498
(dp499
bg375
(g373
(g380
g374
(g375
(g373
(g317
g58
g414
tp500
Rp501
(dp502
bg373
(g72
g212
g420
tp503
Rp504
(dp505
bg373
(g380
g198
g205
g414
tp506
Rp507
(dp508
bg373
(g380
g156
g331
g420
tp509
Rp510
(dp511
bg373
(g432
g58
g177
g414
tp512
Rp513
(dp514
bg373
(g432
g212
g32
g420
tp515
Rp516
(dp517
bg373
(g411
g205
g86
g414
tp518
Rp519
(dp520
bg373
(g411
g331
g226
g420
tp521
Rp522
(dp523
bg373
(g198
g100
g331
g107
tp524
Rp525
(dp526
bg373
(g247
g205
g212
g107
tp527
Rp528
(dp529
bg373
(g156
g205
g100
g107
tp530
Rp531
(dp532
bg373
(g114
g58
g100
g331
tp533
Rp534
(dp535
bg373
(g380
g317
g100
g212
g107
tp536
Rp537
(dp538
bg373
(g380
g247
g58
g331
g107
tp539
Rp540
(dp541
bg373
(g380
g72
g58
g100
g107
tp542
Rp543
(dp544
bg373
(g380
g114
g205
g100
g212
tp545
Rp546
(dp547
bg373
(g432
g205
g100
g107
g226
tp548
Rp549
(dp550
bg373
(g432
g205
g268
g212
g107
tp551
Rp552
(dp553
bg373
(g432
g58
g100
g331
g135
tp554
Rp555
(dp556
bg373
(g432
g100
g86
g331
g107
tp557
Rp558
(dp559
bg373
(g411
g205
g100
g212
g135
tp560
Rp561
(dp562
bg373
(g411
g58
g100
g107
g32
tp563
Rp564
(dp565
bg373
(g411
g58
g268
g331
g107
tp566
Rp567
(dp568
bg373
(g411
g100
g177
g212
g107
tp569
Rp570
(dp571
btp572
Rp573
(dp574
bg380
tp575
Rp576
(dp577
bg375
(g373
(g58
g107
tp578
Rp579
(dp580
bg373
(g380
g100
g212
tp581
Rp582
(dp583
btp584
Rp585
(dp586
bg375
(g373
(g44
g585
tp587
Rp588
(dp589
bg373
(g282
g375
(g373
(g100
g331
tp590
Rp591
(dp592
bg373
(g380
g205
g107
tp593
Rp594
(dp595
btp596
Rp597
(dp598
btp599
Rp600
(dp601
bg373
(g121
g375
(g373
(g205
g212
tp602
Rp603
(dp604
bg373
(g380
g58
g331
tp605
Rp606
(dp607
btp608
Rp609
(dp610
btp611
Rp612
(dp613
bg373
(g317
g100
g226
tp614
Rp615
(dp616
bg373
(g317
g268
g212
tp617
Rp618
(dp619
bg373
(g198
g205
g135
tp620
Rp621
(dp622
bg373
(g198
g177
g107
tp623
Rp624
(dp625
bg373
(g247
g58
g32
tp626
Rp627
(dp628
bg373
(g247
g86
g331
tp629
Rp630
(dp631
bg373
(g184
g100
g212
tp632
Rp633
(dp634
bg373
(g51
g205
g107
tp635
Rp636
(dp637
bg373
(g93
g58
g331
tp638
Rp639
(dp640
bg373
(g205
g324
g212
tp641
Rp642
(dp643
bg373
(g205
g268
g226
tp644
Rp645
(dp646
bg373
(g58
g233
g107
tp647
Rp648
(dp649
bg373
(g58
g177
g135
tp650
Rp651
(dp652
bg373
(g100
g170
g331
tp653
Rp654
(dp655
bg373
(g100
g86
g32
tp656
Rp657
(dp658
bg373
(g374
(g375
(g373
(g58
g107
tp659
Rp660
(dp661
bg373
(g380
g100
g212
tp662
Rp663
(dp664
btp665
Rp666
(dp667
bg380
tp668
Rp669
(dp670
bg375
(g373
(g303
g374
(g386
g380
tp671
Rp672
(dp673
bg375
(g373
(g317
g58
g107
tp674
Rp675
(dp676
bg373
(g198
g100
g331
tp677
Rp678
(dp679
bg373
(g247
g205
g212
tp680
Rp681
(dp682
bg373
(g205
g86
g107
tp683
Rp684
(dp685
bg373
(g58
g268
g331
tp686
Rp687
(dp688
bg373
(g100
g177
g212
tp689
Rp690
(dp691
bg373
(g380
g317
g100
g212
tp692
Rp693
(dp694
bg373
(g380
g198
g205
g107
tp695
Rp696
(dp697
bg373
(g380
g247
g58
g331
tp698
Rp699
(dp700
bg373
(g380
g205
g268
g212
tp701
Rp702
(dp703
bg373
(g380
g58
g177
g107
tp704
Rp705
(dp706
bg373
(g380
g100
g86
g331
tp707
Rp708
(dp709
btp710
Rp711
(dp712
btp713
Rp714
(dp715
bg373
(g672
g375
(g373
(g205
g375
(g219
g373
(g380
g65
tp716
Rp717
(dp718
btp719
Rp720
(dp721
btp722
Rp723
(dp724
bg373
(g380
g303
g375
(g317
g373
(g380
g177
tp725
Rp726
(dp727
btp728
Rp729
(dp730
btp731
Rp732
(dp733
btp734
Rp735
(dp736
bg585
tp737
Rp738
(dp739
bg373
(g380
g205
g672
g375
(g373
(g219
g58
g107
tp740
Rp741
(dp742
bg373
(g198
g100
g240
tp743
Rp744
(dp745
bg373
(g247
g303
g212
tp746
Rp747
(dp748
bg373
(g303
g86
g107
tp749
Rp750
(dp751
bg373
(g58
g268
g240
tp752
Rp753
(dp754
bg373
(g100
g65
g212
tp755
Rp756
(dp757
bg373
(g380
g219
g100
g212
tp758
Rp759
(dp760
bg373
(g380
g198
g303
g107
tp761
Rp762
(dp763
bg373
(g380
g247
g58
g240
tp764
Rp765
(dp766
bg373
(g380
g303
g268
g212
tp767
Rp768
(dp769
bg373
(g380
g58
g65
g107
tp770
Rp771
(dp772
bg373
(g380
g100
g86
g240
tp773
Rp774
(dp775
btp776
Rp777
(dp778
btp779
Rp780
(dp781
btp782
Rp783
(dp784
bg375
(g373
(g72
g100
g212
tp785
Rp786
(dp787
bg373
(g156
g205
g107
tp788
Rp789
(dp790
bg373
(g114
g58
g331
tp791
Rp792
(dp793
bg373
(g205
g212
g135
tp794
Rp795
(dp796
bg373
(g58
g107
g32
tp797
Rp798
(dp799
bg373
(g100
g331
g226
tp800
Rp801
(dp802
bg373
(g380
g72
g58
g107
tp803
Rp804
(dp805
bg373
(g380
g156
g100
g331
tp806
Rp807
(dp808
bg373
(g380
g114
g205
g212
tp809
Rp810
(dp811
bg373
(g380
g205
g107
g226
tp812
Rp813
(dp814
bg373
(g380
g58
g331
g135
tp815
Rp816
(dp817
bg373
(g380
g100
g212
g32
tp818
Rp819
(dp820
btp821
Rp822
(dp823
btp824
Rp825
(dp826
bg373
(g669
g375
(g373
(g100
g226
tp827
Rp828
(dp829
bg373
(g268
g212
tp830
Rp831
(dp832
bg373
(g380
g58
g135
tp833
Rp834
(dp835
bg373
(g380
g86
g107
tp836
Rp837
(dp838
bg373
(g331
g672
g777
tp839
Rp840
(dp841
bg373
(g672
g585
g375
(g373
(g240
g729
tp842
Rp843
(dp844
bg373
(g380
g331
g720
tp845
Rp846
(dp847
btp848
Rp849
(dp850
btp851
Rp852
(dp853
bg373
(g380
g240
g672
g711
tp854
Rp855
(dp856
btp857
Rp858
(dp859
bg375
(g373
(g317
g100
g212
tp860
Rp861
(dp862
bg373
(g198
g205
g107
tp863
Rp864
(dp865
bg373
(g247
g58
g331
tp866
Rp867
(dp868
bg373
(g205
g268
g212
tp869
Rp870
(dp871
bg373
(g58
g177
g107
tp872
Rp873
(dp874
bg373
(g100
g86
g331
tp875
Rp876
(dp877
bg373
(g380
g317
g58
g107
tp878
Rp879
(dp880
bg373
(g380
g198
g100
g331
tp881
Rp882
(dp883
bg373
(g380
g247
g205
g212
tp884
Rp885
(dp886
bg373
(g380
g205
g86
g107
tp887
Rp888
(dp889
bg373
(g380
g58
g268
g331
tp890
Rp891
(dp892
bg373
(g380
g100
g177
g212
tp893
Rp894
(dp895
btp896
Rp897
(dp898
btp899
Rp900
(dp901
bg373
(g380
g317
g58
g135
tp902
Rp903
(dp904
bg373
(g380
g317
g86
g107
tp905
Rp906
(dp907
bg373
(g380
g198
g100
g32
tp908
Rp909
(dp910
bg373
(g380
g198
g268
g331
tp911
Rp912
(dp913
bg373
(g380
g247
g205
g226
tp914
Rp915
(dp916
bg373
(g380
g247
g177
g212
tp917
Rp918
(dp919
bg373
(g380
g184
g58
g107
tp920
Rp921
(dp922
bg373
(g380
g51
g100
g331
tp923
Rp924
(dp925
bg373
(g380
g93
g205
g212
tp926
Rp927
(dp928
bg373
(g380
g205
g170
g107
tp929
Rp930
(dp931
bg373
(g380
g205
g86
g135
tp932
Rp933
(dp934
bg373
(g380
g58
g324
g331
tp935
Rp936
(dp937
bg373
(g380
g58
g268
g32
tp938
Rp939
(dp940
bg373
(g380
g100
g233
g212
tp941
Rp942
(dp943
bg373
(g380
g100
g177
g226
tp944
Rp945
(dp946
btp947
Rp948
(dp949
btp950
Rp951
(dp952
bg373
(g374
(g375
(g373
(g205
g240
tp953
Rp954
(dp955
bg373
(g380
g303
g331
tp956
Rp957
(dp958
btp959
Rp960
(dp961
bg411
tp962
Rp963
(dp964
bg374
(g375
(g660
g373
(g380
g100
g212
tp965
Rp966
(dp967
btp968
Rp969
(dp970
bg411
tp971
Rp972
(dp973
bg374
(g375
(g373
(g375
(g373
(g375
(g373
(g205
g375
(g373
(g303
g212
tp974
Rp975
(dp976
bg373
(g380
g58
g240
tp977
Rp978
(dp979
btp980
Rp981
(dp982
btp983
Rp984
(dp985
bg373
(g380
g303
g375
(g373
(g205
g212
tp986
Rp987
(dp988
bg373
(g380
g58
g331
tp989
Rp990
(dp991
btp992
Rp993
(dp994
btp995
Rp996
(dp997
btp998
Rp999
(dp1000
bg375
(g373
(g72
g58
g107
tp1001
Rp1002
(dp1003
bg373
(g156
g100
g331
tp1004
Rp1005
(dp1006
bg373
(g114
g205
g212
tp1007
Rp1008
(dp1009
bg373
(g205
g107
g226
tp1010
Rp1011
(dp1012
bg373
(g58
g331
g135
tp1013
Rp1014
(dp1015
bg373
(g100
g212
g32
tp1016
Rp1017
(dp1018
bg373
(g380
g72
g100
g212
tp1019
Rp1020
(dp1021
bg373
(g380
g156
g205
g107
tp1022
Rp1023
(dp1024
bg373
(g380
g114
g58
g331
tp1025
Rp1026
(dp1027
bg373
(g380
g205
g212
g135
tp1028
Rp1029
(dp1030
bg373
(g380
g58
g107
g32
tp1031
Rp1032
(dp1033
bg373
(g380
g100
g331
g226
tp1034
Rp1035
(dp1036
btp1037
Rp1038
(dp1039
btp1040
Rp1041
(dp1042
bg373
(g380
g375
(g373
(g331
g981
tp1043
Rp1044
(dp1045
bg373
(g380
g240
g993
tp1046
Rp1047
(dp1048
btp1049
Rp1050
(dp1051
bg375
(g373
(g317
g58
g107
tp1052
Rp1053
(dp1054
bg373
(g198
g100
g331
tp1055
Rp1056
(dp1057
bg373
(g247
g205
g212
tp1058
Rp1059
(dp1060
bg373
(g205
g86
g107
tp1061
Rp1062
(dp1063
bg373
(g58
g268
g331
tp1064
Rp1065
(dp1066
bg373
(g100
g177
g212
tp1067
Rp1068
(dp1069
bg373
(g380
g317
g100
g212
tp1070
Rp1071
(dp1072
bg373
(g380
g198
g205
g107
tp1073
Rp1074
(dp1075
bg373
(g380
g247
g58
g331
tp1076
Rp1077
(dp1078
bg373
(g380
g205
g268
g212
tp1079
Rp1080
(dp1081
bg373
(g380
g58
g177
g107
tp1082
Rp1083
(dp1084
bg373
(g380
g100
g86
g331
tp1085
Rp1086
(dp1087
btp1088
Rp1089
(dp1090
btp1091
Rp1092
(dp1093
bg373
(g375
(g373
(g205
g240
tp1094
Rp1095
(dp1096
bg373
(g380
g303
g331
tp1097
Rp1098
(dp1099
btp1100
Rp1101
(dp1102
bg375
(g373
(g205
g212
tp1103
Rp1104
(dp1105
bg373
(g380
g58
g331
tp1106
Rp1107
(dp1108
btp1109
Rp1110
(dp1111
bg375
(g373
(g58
g135
tp1112
Rp1113
(dp1114
bg373
(g86
g107
tp1115
Rp1116
(dp1117
bg373
(g380
g100
g226
tp1118
Rp1119
(dp1120
bg373
(g380
g268
g212
tp1121
Rp1122
(dp1123
btp1124
Rp1125
(dp1126
btp1127
Rp1128
(dp1129
bg373
(g1101
g969
g375
(g373
(g58
g32
tp1130
Rp1131
(dp1132
bg373
(g86
g331
tp1133
Rp1134
(dp1135
bg373
(g380
g205
g226
tp1136
Rp1137
(dp1138
bg373
(g380
g177
g212
tp1139
Rp1140
(dp1141
btp1142
Rp1143
(dp1144
btp1145
Rp1146
(dp1147
btp1148
Rp1149
(dp1150
bg375
(g373
(g375
(g373
(g205
g375
(g373
(g303
g107
tp1151
Rp1152
(dp1153
bg373
(g380
g100
g240
tp1154
Rp1155
(dp1156
btp1157
Rp1158
(dp1159
btp1160
Rp1161
(dp1162
bg373
(g380
g303
g375
(g373
(g205
g107
tp1163
Rp1164
(dp1165
bg373
(g380
g100
g331
tp1166
Rp1167
(dp1168
btp1169
Rp1170
(dp1171
btp1172
Rp1173
(dp1174
btp1175
Rp1176
(dp1177
bg375
(g373
(g163
g58
g107
tp1178
Rp1179
(dp1180
bg373
(g156
g100
g240
tp1181
Rp1182
(dp1183
bg373
(g114
g303
g212
tp1184
Rp1185
(dp1186
bg373
(g303
g107
g226
tp1187
Rp1188
(dp1189
bg373
(g58
g240
g135
tp1190
Rp1191
(dp1192
bg373
(g100
g212
g261
tp1193
Rp1194
(dp1195
bg373
(g380
g163
g100
g212
tp1196
Rp1197
(dp1198
bg373
(g380
g156
g303
g107
tp1199
Rp1200
(dp1201
bg373
(g380
g114
g58
g240
tp1202
Rp1203
(dp1204
bg373
(g380
g303
g212
g135
tp1205
Rp1206
(dp1207
bg373
(g380
g58
g107
g261
tp1208
Rp1209
(dp1210
bg373
(g380
g100
g240
g226
tp1211
Rp1212
(dp1213
btp1214
Rp1215
(dp1216
btp1217
Rp1218
(dp1219
bg373
(g380
g375
(g373
(g331
g1158
tp1220
Rp1221
(dp1222
bg373
(g380
g240
g1170
tp1223
Rp1224
(dp1225
btp1226
Rp1227
(dp1228
bg375
(g373
(g219
g58
g107
tp1229
Rp1230
(dp1231
bg373
(g198
g100
g240
tp1232
Rp1233
(dp1234
bg373
(g247
g303
g212
tp1235
Rp1236
(dp1237
bg373
(g303
g86
g107
tp1238
Rp1239
(dp1240
bg373
(g58
g268
g240
tp1241
Rp1242
(dp1243
bg373
(g100
g65
g212
tp1244
Rp1245
(dp1246
bg373
(g380
g219
g100
g212
tp1247
Rp1248
(dp1249
bg373
(g380
g198
g303
g107
tp1250
Rp1251
(dp1252
bg373
(g380
g247
g58
g240
tp1253
Rp1254
(dp1255
bg373
(g380
g303
g268
g212
tp1256
Rp1257
(dp1258
bg373
(g380
g58
g65
g107
tp1259
Rp1260
(dp1261
bg373
(g380
g100
g86
g240
tp1262
Rp1263
(dp1264
btp1265
Rp1266
(dp1267
btp1268
Rp1269
(dp1270
bg373
(g375
(g373
(g205
g240
tp1271
Rp1272
(dp1273
bg373
(g380
g303
g331
tp1274
Rp1275
(dp1276
btp1277
Rp1278
(dp1279
bg375
(g373
(g303
g107
tp1280
Rp1281
(dp1282
bg373
(g380
g100
g240
tp1283
Rp1284
(dp1285
btp1286
Rp1287
(dp1288
bg375
(g373
(g58
g135
tp1289
Rp1290
(dp1291
bg373
(g86
g107
tp1292
Rp1293
(dp1294
bg373
(g380
g100
g226
tp1295
Rp1296
(dp1297
bg373
(g380
g268
g212
tp1298
Rp1299
(dp1300
btp1301
Rp1302
(dp1303
btp1304
Rp1305
(dp1306
bg373
(g1278
g969
g375
(g373
(g100
g261
tp1307
Rp1308
(dp1309
bg373
(g268
g240
tp1310
Rp1311
(dp1312
bg373
(g380
g303
g135
tp1313
Rp1314
(dp1315
bg373
(g380
g65
g107
tp1316
Rp1317
(dp1318
btp1319
Rp1320
(dp1321
btp1322
Rp1323
(dp1324
btp1325
Rp1326
(dp1327
btp1328
Rp1329
(dp1330
bg373
(g960
g375
(g373
(g1050
g1266
tp1331
Rp1332
(dp1333
bg373
(g380
g999
g1215
tp1334
Rp1335
(dp1336
btp1337
Rp1338
(dp1339
bg375
(g373
(g317
g58
g414
tp1340
Rp1341
(dp1342
bg373
(g72
g212
g420
tp1343
Rp1344
(dp1345
bg373
(g380
g198
g205
g414
tp1346
Rp1347
(dp1348
bg373
(g380
g156
g331
g420
tp1349
Rp1350
(dp1351
bg373
(g432
g58
g177
g414
tp1352
Rp1353
(dp1354
bg373
(g432
g212
g32
g420
tp1355
Rp1356
(dp1357
bg373
(g411
g205
g86
g414
tp1358
Rp1359
(dp1360
bg373
(g411
g331
g226
g420
tp1361
Rp1362
(dp1363
bg373
(g198
g100
g331
g107
tp1364
Rp1365
(dp1366
bg373
(g247
g205
g212
g107
tp1367
Rp1368
(dp1369
bg373
(g156
g205
g100
g107
tp1370
Rp1371
(dp1372
bg373
(g114
g58
g100
g331
tp1373
Rp1374
(dp1375
bg373
(g380
g317
g100
g212
g107
tp1376
Rp1377
(dp1378
bg373
(g380
g247
g58
g331
g107
tp1379
Rp1380
(dp1381
bg373
(g380
g72
g58
g100
g107
tp1382
Rp1383
(dp1384
bg373
(g380
g114
g205
g100
g212
tp1385
Rp1386
(dp1387
bg373
(g432
g205
g100
g107
g226
tp1388
Rp1389
(dp1390
bg373
(g432
g205
g268
g212
g107
tp1391
Rp1392
(dp1393
bg373
(g432
g58
g100
g331
g135
tp1394
Rp1395
(dp1396
bg373
(g432
g100
g86
g331
g107
tp1397
Rp1398
(dp1399
bg373
(g411
g205
g100
g212
g135
tp1400
Rp1401
(dp1402
bg373
(g411
g58
g100
g107
g32
tp1403
Rp1404
(dp1405
bg373
(g411
g58
g268
g331
g107
tp1406
Rp1407
(dp1408
bg373
(g411
g100
g177
g212
g107
tp1409
Rp1410
(dp1411
btp1412
Rp1413
(dp1414
btp1415
Rp1416
(dp1417
bg373
(g963
g969
g375
(g373
(g303
g226
tp1418
Rp1419
(dp1420
bg373
(g65
g212
tp1421
Rp1422
(dp1423
bg373
(g380
g58
g261
tp1424
Rp1425
(dp1426
bg373
(g380
g86
g240
tp1427
Rp1428
(dp1429
btp1430
Rp1431
(dp1432
bg1413
tp1433
Rp1434
(dp1435
bg373
(g380
g963
g375
(g373
(g303
g212
tp1436
Rp1437
(dp1438
bg373
(g380
g58
g240
tp1439
Rp1440
(dp1441
btp1442
Rp1443
(dp1444
bg375
(g373
(g58
g135
tp1445
Rp1446
(dp1447
bg373
(g86
g107
tp1448
Rp1449
(dp1450
bg373
(g380
g100
g226
tp1451
Rp1452
(dp1453
bg373
(g380
g268
g212
tp1454
Rp1455
(dp1456
btp1457
Rp1458
(dp1459
bg375
(g373
(g317
g58
g414
tp1460
Rp1461
(dp1462
bg373
(g72
g212
g420
tp1463
Rp1464
(dp1465
bg373
(g380
g198
g205
g414
tp1466
Rp1467
(dp1468
bg373
(g380
g156
g331
g420
tp1469
Rp1470
(dp1471
bg373
(g432
g58
g177
g414
tp1472
Rp1473
(dp1474
bg373
(g432
g212
g32
g420
tp1475
Rp1476
(dp1477
bg373
(g411
g205
g86
g414
tp1478
Rp1479
(dp1480
bg373
(g411
g331
g226
g420
tp1481
Rp1482
(dp1483
bg373
(g198
g100
g331
g107
tp1484
Rp1485
(dp1486
bg373
(g247
g205
g212
g107
tp1487
Rp1488
(dp1489
bg373
(g156
g205
g100
g107
tp1490
Rp1491
(dp1492
bg373
(g114
g58
g100
g331
tp1493
Rp1494
(dp1495
bg373
(g380
g317
g100
g212
g107
tp1496
Rp1497
(dp1498
bg373
(g380
g247
g58
g331
g107
tp1499
Rp1500
(dp1501
bg373
(g380
g72
g58
g100
g107
tp1502
Rp1503
(dp1504
bg373
(g380
g114
g205
g100
g212
tp1505
Rp1506
(dp1507
bg373
(g432
g205
g100
g107
g226
tp1508
Rp1509
(dp1510
bg373
(g432
g205
g268
g212
g107
tp1511
Rp1512
(dp1513
bg373
(g432
g58
g100
g331
g135
tp1514
Rp1515
(dp1516
bg373
(g432
g100
g86
g331
g107
tp1517
Rp1518
(dp1519
bg373
(g411
g205
g100
g212
g135
tp1520
Rp1521
(dp1522
bg373
(g411
g58
g100
g107
g32
tp1523
Rp1524
(dp1525
bg373
(g411
g58
g268
g331
g107
tp1526
Rp1527
(dp1528
bg373
(g411
g100
g177
g212
g107
tp1529
Rp1530
(dp1531
btp1532
Rp1533
(dp1534
btp1535
Rp1536
(dp1537
btp1538
Rp1539
(dp1540
bg380
tp1541
Rp1542
(dp1543
bg375
(g373
(g205
g226
tp1544
Rp1545
(dp1546
bg373
(g177
g212
tp1547
Rp1548
(dp1549
bg373
(g380
g58
g32
tp1550
Rp1551
(dp1552
bg373
(g380
g86
g331
tp1553
Rp1554
(dp1555
bg373
(g669
g609
g375
(g828
g831
g373
(g380
g58
g135
tp1556
Rp1557
(dp1558
bg373
(g380
g86
g107
tp1559
Rp1560
(dp1561
btp1562
Rp1563
(dp1564
btp1565
Rp1566
(dp1567
bg373
(g669
g375
(g373
(g303
g672
g375
(g373
(g58
g331
tp1568
Rp1569
(dp1570
bg373
(g380
g205
g212
tp1571
Rp1572
(dp1573
btp1574
Rp1575
(dp1576
btp1577
Rp1578
(dp1579
bg373
(g380
g205
g672
g375
(g373
(g58
g240
tp1580
Rp1581
(dp1582
bg373
(g380
g303
g212
tp1583
Rp1584
(dp1585
btp1586
Rp1587
(dp1588
btp1589
Rp1590
(dp1591
btp1592
Rp1593
(dp1594
bg822
tp1595
Rp1596
(dp1597
bg373
(g669
g375
(g373
(g331
g672
g1587
tp1598
Rp1599
(dp1600
bg373
(g380
g240
g672
g1575
tp1601
Rp1602
(dp1603
btp1604
Rp1605
(dp1606
bg897
tp1607
Rp1608
(dp1609
btp1610
Rp1611
(dp1612
bg375
(g373
(g254
g585
tp1613
Rp1614
(dp1615
bg373
(g282
g375
(g373
(g100
g240
tp1616
Rp1617
(dp1618
bg373
(g380
g303
g107
tp1619
Rp1620
(dp1621
btp1622
Rp1623
(dp1624
btp1625
Rp1626
(dp1627
bg373
(g121
g375
(g373
(g303
g212
tp1628
Rp1629
(dp1630
bg373
(g380
g58
g240
tp1631
Rp1632
(dp1633
btp1634
Rp1635
(dp1636
btp1637
Rp1638
(dp1639
bg373
(g219
g100
g226
tp1640
Rp1641
(dp1642
bg373
(g219
g268
g212
tp1643
Rp1644
(dp1645
bg373
(g198
g303
g135
tp1646
Rp1647
(dp1648
bg373
(g198
g65
g107
tp1649
Rp1650
(dp1651
bg373
(g247
g58
g261
tp1652
Rp1653
(dp1654
bg373
(g247
g86
g240
tp1655
Rp1656
(dp1657
bg373
(g79
g100
g212
tp1658
Rp1659
(dp1660
bg373
(g51
g303
g107
tp1661
Rp1662
(dp1663
bg373
(g93
g58
g240
tp1664
Rp1665
(dp1666
bg373
(g303
g324
g212
tp1667
Rp1668
(dp1669
bg373
(g303
g268
g226
tp1670
Rp1671
(dp1672
bg373
(g58
g142
g107
tp1673
Rp1674
(dp1675
bg373
(g58
g65
g135
tp1676
Rp1677
(dp1678
bg373
(g100
g170
g240
tp1679
Rp1680
(dp1681
bg373
(g100
g86
g261
tp1682
Rp1683
(dp1684
bg373
(g669
g783
g375
(g373
(g163
g100
g212
tp1685
Rp1686
(dp1687
bg373
(g156
g303
g107
tp1688
Rp1689
(dp1690
bg373
(g114
g58
g240
tp1691
Rp1692
(dp1693
bg373
(g303
g212
g135
tp1694
Rp1695
(dp1696
bg373
(g58
g107
g261
tp1697
Rp1698
(dp1699
bg373
(g100
g240
g226
tp1700
Rp1701
(dp1702
bg373
(g380
g163
g58
g107
tp1703
Rp1704
(dp1705
bg373
(g380
g156
g100
g240
tp1706
Rp1707
(dp1708
bg373
(g380
g114
g303
g212
tp1709
Rp1710
(dp1711
bg373
(g380
g303
g107
g226
tp1712
Rp1713
(dp1714
bg373
(g380
g58
g240
g135
tp1715
Rp1716
(dp1717
bg373
(g380
g100
g212
g261
tp1718
Rp1719
(dp1720
btp1721
Rp1722
(dp1723
btp1724
Rp1725
(dp1726
bg373
(g669
g858
g375
(g373
(g219
g100
g212
tp1727
Rp1728
(dp1729
bg373
(g198
g303
g107
tp1730
Rp1731
(dp1732
bg373
(g247
g58
g240
tp1733
Rp1734
(dp1735
bg373
(g303
g268
g212
tp1736
Rp1737
(dp1738
bg373
(g58
g65
g107
tp1739
Rp1740
(dp1741
bg373
(g100
g86
g240
tp1742
Rp1743
(dp1744
bg373
(g380
g219
g58
g107
tp1745
Rp1746
(dp1747
bg373
(g380
g198
g100
g240
tp1748
Rp1749
(dp1750
bg373
(g380
g247
g303
g212
tp1751
Rp1752
(dp1753
bg373
(g380
g303
g86
g107
tp1754
Rp1755
(dp1756
bg373
(g380
g58
g268
g240
tp1757
Rp1758
(dp1759
bg373
(g380
g100
g65
g212
tp1760
Rp1761
(dp1762
btp1763
Rp1764
(dp1765
btp1766
Rp1767
(dp1768
bg373
(g380
g219
g58
g135
tp1769
Rp1770
(dp1771
bg373
(g380
g219
g86
g107
tp1772
Rp1773
(dp1774
bg373
(g380
g198
g100
g261
tp1775
Rp1776
(dp1777
bg373
(g380
g198
g268
g240
tp1778
Rp1779
(dp1780
bg373
(g380
g247
g303
g226
tp1781
Rp1782
(dp1783
bg373
(g380
g247
g65
g212
tp1784
Rp1785
(dp1786
bg373
(g380
g79
g58
g107
tp1787
Rp1788
(dp1789
bg373
(g380
g51
g100
g240
tp1790
Rp1791
(dp1792
bg373
(g380
g93
g303
g212
tp1793
Rp1794
(dp1795
bg373
(g380
g303
g170
g107
tp1796
Rp1797
(dp1798
bg373
(g380
g303
g86
g135
tp1799
Rp1800
(dp1801
bg373
(g380
g58
g324
g240
tp1802
Rp1803
(dp1804
bg373
(g380
g58
g268
g261
tp1805
Rp1806
(dp1807
bg373
(g380
g100
g142
g212
tp1808
Rp1809
(dp1810
bg373
(g380
g100
g65
g226
tp1811
Rp1812
(dp1813
bg373
(g380
g576
g585
g375
(g373
(g100
g261
tp1814
Rp1815
(dp1816
bg373
(g268
g240
tp1817
Rp1818
(dp1819
bg373
(g380
g303
g135
tp1820
Rp1821
(dp1822
bg373
(g380
g65
g107
tp1823
Rp1824
(dp1825
bg373
(g669
g1623
g1563
tp1826
Rp1827
(dp1828
bg373
(g669
g375
(g373
(g303
g672
g375
(g373
(g205
g107
tp1829
Rp1830
(dp1831
bg373
(g380
g100
g331
tp1832
Rp1833
(dp1834
btp1835
Rp1836
(dp1837
btp1838
Rp1839
(dp1840
bg373
(g380
g205
g672
g375
(g373
(g303
g107
tp1841
Rp1842
(dp1843
bg373
(g380
g100
g240
tp1844
Rp1845
(dp1846
btp1847
Rp1848
(dp1849
btp1850
Rp1851
(dp1852
btp1853
Rp1854
(dp1855
bg1722
tp1856
Rp1857
(dp1858
bg373
(g669
g375
(g373
(g331
g672
g1848
tp1859
Rp1860
(dp1861
bg373
(g380
g240
g672
g1836
tp1862
Rp1863
(dp1864
btp1865
Rp1866
(dp1867
bg1764
tp1868
Rp1869
(dp1870
btp1871
Rp1872
(dp1873
bg948
tp1874
Rp1875
(dp1876
btp1877
Rp1878
(dp1879
btp1880
Rp1881
(dp1882
btp1883
Rp1884
(dp1885
bg1539
tp1886
Rp1887
(dp1888
bag373
(g380
g374
(g960
g405
tp1889
Rp1890
(dp1891
bg374
(g585
g388
(I8
tp1892
Rp1893
(dp1894
btp1895
Rp1896
(dp1897
bg374
(g495
g388
(I3
tp1898
Rp1899
(dp1900
btp1901
Rp1902
(dp1903
bg1878
tp1904
Rp1905
(dp1906
bag373
(g393
g408
g498
g1539
tp1907
Rp1908
(dp1909
bacsympy.core.numbers
Zero
p1910
(tRp1911
(dp1912
bag373
(g393
g408
g498
g375
(g373
(g380
g576
g585
g375
(g373
(g289
g585
tp1913
Rp1914
(dp1915
bg373
(g128
g597
tp1916
Rp1917
(dp1918
bg373
(g345
g609
tp1919
Rp1920
(dp1921
bg373
(g72
g100
g226
tp1922
Rp1923
(dp1924
bg373
(g72
g268
g212
tp1925
Rp1926
(dp1927
bg373
(g156
g205
g135
tp1928
Rp1929
(dp1930
bg373
(g156
g177
g107
tp1931
Rp1932
(dp1933
bg373
(g114
g58
g32
tp1934
Rp1935
(dp1936
bg373
(g114
g86
g331
tp1937
Rp1938
(dp1939
bg373
(g191
g100
g212
tp1940
Rp1941
(dp1942
bg373
(g6
g205
g107
tp1943
Rp1944
(dp1945
bg373
(g296
g58
g331
tp1946
Rp1947
(dp1948
bg373
(g205
g212
g338
tp1949
Rp1950
(dp1951
bg373
(g58
g107
g352
tp1952
Rp1953
(dp1954
bg373
(g100
g331
g149
tp1955
Rp1956
(dp1957
bg373
(g177
g212
g135
tp1958
Rp1959
(dp1960
bg373
(g86
g107
g32
tp1961
Rp1962
(dp1963
bg373
(g268
g331
g226
tp1964
Rp1965
(dp1966
bg373
(g669
g375
(g373
(g331
g672
g375
(g373
(g163
g58
g107
tp1967
Rp1968
(dp1969
bg373
(g156
g100
g240
tp1970
Rp1971
(dp1972
bg373
(g114
g303
g212
tp1973
Rp1974
(dp1975
bg373
(g303
g107
g226
tp1976
Rp1977
(dp1978
bg373
(g58
g240
g135
tp1979
Rp1980
(dp1981
bg373
(g100
g212
g261
tp1982
Rp1983
(dp1984
bg373
(g380
g163
g100
g212
tp1985
Rp1986
(dp1987
bg373
(g380
g156
g303
g107
tp1988
Rp1989
(dp1990
bg373
(g380
g114
g58
g240
tp1991
Rp1992
(dp1993
bg373
(g380
g303
g212
g135
tp1994
Rp1995
(dp1996
bg373
(g380
g58
g107
g261
tp1997
Rp1998
(dp1999
bg373
(g380
g100
g240
g226
tp2000
Rp2001
(dp2002
btp2003
Rp2004
(dp2005
btp2006
Rp2007
(dp2008
bg373
(g672
g585
g375
(g373
(g240
g375
(g72
g373
(g380
g32
tp2009
Rp2010
(dp2011
btp2012
Rp2013
(dp2014
btp2015
Rp2016
(dp2017
bg373
(g380
g331
g375
(g163
g373
(g380
g261
tp2018
Rp2019
(dp2020
btp2021
Rp2022
(dp2023
btp2024
Rp2025
(dp2026
btp2027
Rp2028
(dp2029
btp2030
Rp2031
(dp2032
bg373
(g380
g240
g672
g375
(g373
(g72
g58
g107
tp2033
Rp2034
(dp2035
bg373
(g156
g100
g331
tp2036
Rp2037
(dp2038
bg373
(g114
g205
g212
tp2039
Rp2040
(dp2041
bg373
(g205
g107
g226
tp2042
Rp2043
(dp2044
bg373
(g58
g331
g135
tp2045
Rp2046
(dp2047
bg373
(g100
g212
g32
tp2048
Rp2049
(dp2050
bg373
(g380
g72
g100
g212
tp2051
Rp2052
(dp2053
bg373
(g380
g156
g205
g107
tp2054
Rp2055
(dp2056
bg373
(g380
g114
g58
g331
tp2057
Rp2058
(dp2059
bg373
(g380
g205
g212
g135
tp2060
Rp2061
(dp2062
bg373
(g380
g58
g107
g32
tp2063
Rp2064
(dp2065
bg373
(g380
g100
g331
g226
tp2066
Rp2067
(dp2068
btp2069
Rp2070
(dp2071
btp2072
Rp2073
(dp2074
btp2075
Rp2076
(dp2077
bg897
tp2078
Rp2079
(dp2080
bg373
(g669
g375
(g828
g831
g373
(g380
g58
g135
tp2081
Rp2082
(dp2083
bg373
(g380
g86
g107
tp2084
Rp2085
(dp2086
bg373
(g303
g672
g2070
tp2087
Rp2088
(dp2089
bg373
(g672
g375
(g373
(g205
g2022
tp2090
Rp2091
(dp2092
bg373
(g380
g303
g2013
tp2093
Rp2094
(dp2095
btp2096
Rp2097
(dp2098
bg585
tp2099
Rp2100
(dp2101
bg373
(g380
g205
g672
g2004
tp2102
Rp2103
(dp2104
btp2105
Rp2106
(dp2107
bg822
tp2108
Rp2109
(dp2110
bg373
(g380
g72
g58
g135
tp2111
Rp2112
(dp2113
bg373
(g380
g72
g86
g107
tp2114
Rp2115
(dp2116
bg373
(g380
g156
g100
g32
tp2117
Rp2118
(dp2119
bg373
(g380
g156
g268
g331
tp2120
Rp2121
(dp2122
bg373
(g380
g114
g205
g226
tp2123
Rp2124
(dp2125
bg373
(g380
g114
g177
g212
tp2126
Rp2127
(dp2128
bg373
(g380
g191
g58
g107
tp2129
Rp2130
(dp2131
bg373
(g380
g6
g100
g331
tp2132
Rp2133
(dp2134
bg373
(g380
g296
g205
g212
tp2135
Rp2136
(dp2137
bg373
(g380
g205
g107
g149
tp2138
Rp2139
(dp2140
bg373
(g380
g58
g331
g338
tp2141
Rp2142
(dp2143
bg373
(g380
g100
g212
g352
tp2144
Rp2145
(dp2146
bg373
(g380
g177
g107
g226
tp2147
Rp2148
(dp2149
bg373
(g380
g86
g331
g135
tp2150
Rp2151
(dp2152
bg373
(g380
g268
g212
g32
tp2153
Rp2154
(dp2155
btp2156
Rp2157
(dp2158
btp2159
Rp2160
(dp2161
bg373
(g963
g972
g1542
g1611
g375
(g373
(g310
g585
tp2162
Rp2163
(dp2164
bg373
(g128
g1623
tp2165
Rp2166
(dp2167
bg373
(g345
g1635
tp2168
Rp2169
(dp2170
bg373
(g163
g100
g226
tp2171
Rp2172
(dp2173
bg373
(g163
g268
g212
tp2174
Rp2175
(dp2176
bg373
(g156
g303
g135
tp2177
Rp2178
(dp2179
bg373
(g156
g65
g107
tp2180
Rp2181
(dp2182
bg373
(g114
g58
g261
tp2183
Rp2184
(dp2185
bg373
(g114
g86
g240
tp2186
Rp2187
(dp2188
bg373
(g359
g100
g212
tp2189
Rp2190
(dp2191
bg373
(g6
g303
g107
tp2192
Rp2193
(dp2194
bg373
(g296
g58
g240
tp2195
Rp2196
(dp2197
bg373
(g303
g212
g338
tp2198
Rp2199
(dp2200
bg373
(g58
g107
g275
tp2201
Rp2202
(dp2203
bg373
(g100
g240
g149
tp2204
Rp2205
(dp2206
bg373
(g65
g212
g135
tp2207
Rp2208
(dp2209
bg373
(g86
g107
g261
tp2210
Rp2211
(dp2212
bg373
(g268
g240
g226
tp2213
Rp2214
(dp2215
bg373
(g669
g2076
g1764
tp2216
Rp2217
(dp2218
bg373
(g669
g2106
g1722
tp2219
Rp2220
(dp2221
bg373
(g380
g163
g58
g135
tp2222
Rp2223
(dp2224
bg373
(g380
g163
g86
g107
tp2225
Rp2226
(dp2227
bg373
(g380
g156
g100
g261
tp2228
Rp2229
(dp2230
bg373
(g380
g156
g268
g240
tp2231
Rp2232
(dp2233
bg373
(g380
g114
g303
g226
tp2234
Rp2235
(dp2236
bg373
(g380
g114
g65
g212
tp2237
Rp2238
(dp2239
bg373
(g380
g359
g58
g107
tp2240
Rp2241
(dp2242
bg373
(g380
g6
g100
g240
tp2243
Rp2244
(dp2245
bg373
(g380
g296
g303
g212
tp2246
Rp2247
(dp2248
bg373
(g380
g303
g107
g149
tp2249
Rp2250
(dp2251
bg373
(g380
g58
g240
g338
tp2252
Rp2253
(dp2254
bg373
(g380
g100
g212
g275
tp2255
Rp2256
(dp2257
bg373
(g380
g65
g107
g226
tp2258
Rp2259
(dp2260
bg373
(g380
g86
g240
g135
tp2261
Rp2262
(dp2263
bg373
(g380
g268
g212
g261
tp2264
Rp2265
(dp2266
bg373
(g380
g576
g585
g1872
g2157
tp2267
Rp2268
(dp2269
btp2270
Rp2271
(dp2272
btp2273
Rp2274
(dp2275
btp2276
Rp2277
(dp2278
bg1539
tp2279
Rp2280
(dp2281
bag373
(g380
g1890
g1896
g1902
g2271
tp2282
Rp2283
(dp2284
bag1911
ag1908
asS'cols'
p2285
I4
sbs.